; ModuleID = '34/3038.c'
source_filename = "34/3038.c"
target datalayout = "e-m:e-p270:32:32-p271:32:32-p272:64:64-i64:64-f80:128-n8:16:32:64-S128"
target triple = "x86_64-pc-linux-gnu"

@.str = private unnamed_addr constant [9 x i8] c"%d/2=%d\0A\00", align 1
@.str.1 = private unnamed_addr constant [11 x i8] c"%d*3+1=%d\0A\00", align 1
@.str.2 = private unnamed_addr constant [3 x i8] c"%d\00", align 1
@b = common dso_local global i32 0, align 4
@.str.3 = private unnamed_addr constant [4 x i8] c"End\00", align 1

; Function Attrs: noinline nounwind uwtable
define dso_local i32 @oushu(i32 %0) #0 {
  %2 = alloca i32, align 4
  %3 = alloca i32, align 4
  %4 = alloca i32, align 4
  store i32 %0, i32* %3, align 4
  %5 = load i32, i32* %3, align 4
  store i32 %5, i32* %4, align 4
  %6 = load i32, i32* %3, align 4
  %7 = sdiv i32 %6, 2
  store i32 %7, i32* %3, align 4
  %8 = load i32, i32* %4, align 4
  %9 = load i32, i32* %3, align 4
  %10 = call i32 (i8*, ...) @printf(i8* getelementptr inbounds ([9 x i8], [9 x i8]* @.str, i64 0, i64 0), i32 %8, i32 %9)
  %11 = load i32, i32* %3, align 4
  %12 = icmp eq i32 %11, 1
  br i1 %12, label %13, label %14

13:                                               ; preds = %1
  store i32 0, i32* %2, align 4
  br label %24

14:                                               ; preds = %1
  %15 = load i32, i32* %3, align 4
  %16 = srem i32 %15, 2
  %17 = icmp eq i32 %16, 0
  br i1 %17, label %18, label %21

18:                                               ; preds = %14
  %19 = load i32, i32* %3, align 4
  %20 = call i32 @oushu(i32 %19)
  store i32 %20, i32* %2, align 4
  br label %24

21:                                               ; preds = %14
  %22 = load i32, i32* %3, align 4
  %23 = call i32 @jishu(i32 %22)
  store i32 %23, i32* %2, align 4
  br label %24

24:                                               ; preds = %21, %18, %13
  %25 = load i32, i32* %2, align 4
  ret i32 %25
}

declare dso_local i32 @printf(i8*, ...) #1

; Function Attrs: noinline nounwind uwtable
define dso_local i32 @jishu(i32 %0) #0 {
  %2 = alloca i32, align 4
  %3 = alloca i32, align 4
  %4 = alloca i32, align 4
  store i32 %0, i32* %3, align 4
  %5 = load i32, i32* %3, align 4
  store i32 %5, i32* %4, align 4
  %6 = load i32, i32* %3, align 4
  %7 = mul nsw i32 %6, 3
  %8 = add nsw i32 %7, 1
  store i32 %8, i32* %3, align 4
  %9 = load i32, i32* %4, align 4
  %10 = load i32, i32* %3, align 4
  %11 = call i32 (i8*, ...) @printf(i8* getelementptr inbounds ([11 x i8], [11 x i8]* @.str.1, i64 0, i64 0), i32 %9, i32 %10)
  %12 = load i32, i32* %3, align 4
  %13 = icmp eq i32 %12, 1
  br i1 %13, label %14, label %15

14:                                               ; preds = %1
  store i32 0, i32* %2, align 4
  br label %25

15:                                               ; preds = %1
  %16 = load i32, i32* %3, align 4
  %17 = srem i32 %16, 2
  %18 = icmp eq i32 %17, 0
  br i1 %18, label %19, label %22

19:                                               ; preds = %15
  %20 = load i32, i32* %3, align 4
  %21 = call i32 @oushu(i32 %20)
  store i32 %21, i32* %2, align 4
  br label %25

22:                                               ; preds = %15
  %23 = load i32, i32* %3, align 4
  %24 = call i32 @jishu(i32 %23)
  store i32 %24, i32* %2, align 4
  br label %25

25:                                               ; preds = %22, %19, %14
  %26 = load i32, i32* %2, align 4
  ret i32 %26
}

; Function Attrs: noinline nounwind uwtable
define dso_local void @main() #0 {
  %1 = call i32 (i8*, ...) @__isoc99_scanf(i8* getelementptr inbounds ([3 x i8], [3 x i8]* @.str.2, i64 0, i64 0), i32* @b)
  %2 = load i32, i32* @b, align 4
  %3 = icmp eq i32 %2, 1
  br i1 %3, label %4, label %6

4:                                                ; preds = %0
  %5 = call i32 (i8*, ...) @printf(i8* getelementptr inbounds ([4 x i8], [4 x i8]* @.str.3, i64 0, i64 0))
  br label %19

6:                                                ; preds = %0
  %7 = load i32, i32* @b, align 4
  %8 = srem i32 %7, 2
  %9 = icmp eq i32 %8, 0
  br i1 %9, label %10, label %13

10:                                               ; preds = %6
  %11 = load i32, i32* @b, align 4
  %12 = call i32 @oushu(i32 %11)
  br label %16

13:                                               ; preds = %6
  %14 = load i32, i32* @b, align 4
  %15 = call i32 @jishu(i32 %14)
  br label %16

16:                                               ; preds = %13, %10
  br label %17

17:                                               ; preds = %16
  %18 = call i32 (i8*, ...) @printf(i8* getelementptr inbounds ([4 x i8], [4 x i8]* @.str.3, i64 0, i64 0))
  br label %19

19:                                               ; preds = %17, %4
  ret void
}

declare dso_local i32 @__isoc99_scanf(i8*, ...) #1


!llvm.module.flags = !{!0}
!llvm.ident = !{!1}

!0 = !{i32 1, !"wchar_size", i32 4}
!1 = !{!"clang version 10.0.0-4ubuntu1 "}
